; Function Attrs: nounwind uwtable
define hidden void @ma_fence_uninit(ptr noundef %0) local_unnamed_addr #7 {
  %2 = icmp eq ptr %0, null
  br i1 %2, label %7, label %ma_zero_memory_default.exit

ma_zero_memory_default.exit:                      ; preds = %1
  %3 = getelementptr inbounds nuw i8, ptr %0, i64 48
  %4 = tail call i32 @pthread_cond_destroy(ptr noundef nonnull %3) #72
  %5 = getelementptr inbounds nuw i8, ptr %0, i64 8
  %6 = tail call i32 @pthread_mutex_destroy(ptr noundef nonnull %5) #72
  tail call void @llvm.memset.p0.i64(ptr noundef nonnull align 1 dereferenceable(104) %0, i8 0, i64 104, i1 false)
  br label %7

7:                                                ; preds = %1, %ma_zero_memory_default.exit
  ret void
}